target datalayout = "e-m:e-p270:32:32-p271:32:32-p272:64:64-i64:64-i128:128-f80:128-n8:16:32:64-S128"
target triple = "x86_64-pc-linux-gnu"

%class.dtTileCache = type { i32, i32, ptr, ptr, ptr, i32, i32, %struct.dtTileCacheParams, ptr, ptr, ptr, ptr, ptr, [64 x %"struct.dtTileCache::ObstacleRequest"], i32, [64 x i32], i32 }
%struct.dtTileCacheParams = type { [3 x float], float, float, i32, i32, float, float, float, float, i32, i32 }
%"struct.dtTileCache::ObstacleRequest" = type { i32, i32 }
%struct.dtCompressedTile = type { i32, ptr, ptr, i32, ptr, i32, i32, ptr }
%struct.dtTileCacheLayerHeader = type { i32, i32, i32, i32, i32, [3 x float], [3 x float], i16, i16, i8, i8, i8, i8, i8, i8 }

; Function Attrs: mustprogress nounwind uwtable
define linkonce_odr noundef i32 @_Z15computeTileHashiii(i32 noundef %0, i32 noundef %1, i32 noundef %2) #2 comdat {
  %4 = alloca i32, align 4
  %5 = alloca i32, align 4
  %6 = alloca i32, align 4
  %7 = alloca i32, align 4
  %8 = alloca i32, align 4
  %9 = alloca i32, align 4
  store i32 %0, ptr %4, align 4
  store i32 %1, ptr %5, align 4
  store i32 %2, ptr %6, align 4
  store i32 -1918454973, ptr %7, align 4
  store i32 -669632447, ptr %8, align 4
  %10 = load i32, ptr %4, align 4
  %11 = mul i32 -1918454973, %10
  %12 = load i32, ptr %5, align 4
  %13 = mul i32 -669632447, %12
  %14 = add i32 %11, %13
  store i32 %14, ptr %9, align 4
  %15 = load i32, ptr %9, align 4
  %16 = load i32, ptr %6, align 4
  %17 = and i32 %15, %16
  ret i32 %17
}

; Function Attrs: mustprogress nounwind uwtable
define linkonce_odr noundef i32 @_ZNK11dtTileCache16decodeTileIdSaltEj(ptr noundef nonnull align 8 dereferenceable(912) %0, i32 noundef %1) #2 comdat align 2 {
  %3 = alloca ptr, align 8
  %4 = alloca i32, align 4
  %5 = alloca i32, align 4
  store ptr %0, ptr %3, align 8
  store i32 %1, ptr %4, align 4
  %6 = load ptr, ptr %3, align 8
  %7 = getelementptr inbounds %class.dtTileCache, ptr %6, i32 0, i32 5
  %8 = load i32, ptr %7, align 8
  %9 = shl i32 1, %8
  %10 = sub i32 %9, 1
  store i32 %10, ptr %5, align 4
  %11 = load i32, ptr %4, align 4
  %12 = getelementptr inbounds %class.dtTileCache, ptr %6, i32 0, i32 6
  %13 = load i32, ptr %12, align 4
  %14 = lshr i32 %11, %13
  %15 = load i32, ptr %5, align 4
  %16 = and i32 %14, %15
  ret i32 %16
}

; Function Attrs: mustprogress nounwind uwtable
define linkonce_odr noundef i32 @_ZNK11dtTileCache16decodeTileIdTileEj(ptr noundef nonnull align 8 dereferenceable(912) %0, i32 noundef %1) #2 comdat align 2 {
  %3 = alloca ptr, align 8
  %4 = alloca i32, align 4
  %5 = alloca i32, align 4
  store ptr %0, ptr %3, align 8
  store i32 %1, ptr %4, align 4
  %6 = load ptr, ptr %3, align 8
  %7 = getelementptr inbounds %class.dtTileCache, ptr %6, i32 0, i32 6
  %8 = load i32, ptr %7, align 4
  %9 = shl i32 1, %8
  %10 = sub i32 %9, 1
  store i32 %10, ptr %5, align 4
  %11 = load i32, ptr %4, align 4
  %12 = load i32, ptr %5, align 4
  %13 = and i32 %11, %12
  ret i32 %13
}

; Function Attrs: mustprogress uwtable
define noundef i32 @_ZN11dtTileCache10removeTileEjPPhPi(ptr noundef nonnull align 8 dereferenceable(912) %0, i32 noundef %1, ptr noundef %2, ptr noundef %3) #0 align 2 {
  %5 = alloca i32, align 4
  %6 = alloca ptr, align 8
  %7 = alloca i32, align 4
  %8 = alloca ptr, align 8
  %9 = alloca ptr, align 8
  %10 = alloca i32, align 4
  %11 = alloca i32, align 4
  %12 = alloca ptr, align 8
  %13 = alloca i32, align 4
  %14 = alloca ptr, align 8
  %15 = alloca ptr, align 8
  store ptr %0, ptr %6, align 8
  store i32 %1, ptr %7, align 4
  store ptr %2, ptr %8, align 8
  store ptr %3, ptr %9, align 8
  %16 = load ptr, ptr %6, align 8
  %17 = load i32, ptr %7, align 4
  %18 = icmp ne i32 %17, 0
  br i1 %18, label %20, label %19

19:                                               ; preds = %4
  store i32 -2147483640, ptr %5, align 4
  br label %175

20:                                               ; preds = %4
  %21 = load i32, ptr %7, align 4
  %22 = call noundef i32 @_ZNK11dtTileCache16decodeTileIdTileEj(ptr noundef nonnull align 8 dereferenceable(912) %16, i32 noundef %21)
  store i32 %22, ptr %10, align 4
  %23 = load i32, ptr %7, align 4
  %24 = call noundef i32 @_ZNK11dtTileCache16decodeTileIdSaltEj(ptr noundef nonnull align 8 dereferenceable(912) %16, i32 noundef %23)
  store i32 %24, ptr %11, align 4
  %25 = load i32, ptr %10, align 4
  %26 = getelementptr inbounds %class.dtTileCache, ptr %16, i32 0, i32 7
  %27 = getelementptr inbounds %struct.dtTileCacheParams, ptr %26, i32 0, i32 9
  %28 = load i32, ptr %27, align 4
  %29 = icmp sge i32 %25, %28
  br i1 %29, label %30, label %31

30:                                               ; preds = %20
  store i32 -2147483640, ptr %5, align 4
  br label %175

31:                                               ; preds = %20
  %32 = getelementptr inbounds %class.dtTileCache, ptr %16, i32 0, i32 4
  %33 = load ptr, ptr %32, align 8
  %34 = load i32, ptr %10, align 4
  %35 = zext i32 %34 to i64
  %36 = getelementptr inbounds %struct.dtCompressedTile, ptr %33, i64 %35
  store ptr %36, ptr %12, align 8
  %37 = load ptr, ptr %12, align 8
  %38 = getelementptr inbounds %struct.dtCompressedTile, ptr %37, i32 0, i32 0
  %39 = load i32, ptr %38, align 8
  %40 = load i32, ptr %11, align 4
  %41 = icmp ne i32 %39, %40
  br i1 %41, label %42, label %43

42:                                               ; preds = %31
  store i32 -2147483640, ptr %5, align 4
  br label %175

43:                                               ; preds = %31
  %44 = load ptr, ptr %12, align 8
  %45 = getelementptr inbounds %struct.dtCompressedTile, ptr %44, i32 0, i32 1
  %46 = load ptr, ptr %45, align 8
  %47 = getelementptr inbounds %struct.dtTileCacheLayerHeader, ptr %46, i32 0, i32 2
  %48 = load i32, ptr %47, align 4
  %49 = load ptr, ptr %12, align 8
  %50 = getelementptr inbounds %struct.dtCompressedTile, ptr %49, i32 0, i32 1
  %51 = load ptr, ptr %50, align 8
  %52 = getelementptr inbounds %struct.dtTileCacheLayerHeader, ptr %51, i32 0, i32 3
  %53 = load i32, ptr %52, align 4
  %54 = getelementptr inbounds %class.dtTileCache, ptr %16, i32 0, i32 1
  %55 = load i32, ptr %54, align 4
  %56 = call noundef i32 @_Z15computeTileHashiii(i32 noundef %48, i32 noundef %53, i32 noundef %55)
  store i32 %56, ptr %13, align 4
  store ptr null, ptr %14, align 8
  %57 = getelementptr inbounds %class.dtTileCache, ptr %16, i32 0, i32 2
  %58 = load ptr, ptr %57, align 8
  %59 = load i32, ptr %13, align 4
  %60 = sext i32 %59 to i64
  %61 = getelementptr inbounds ptr, ptr %58, i64 %60
  %62 = load ptr, ptr %61, align 8
  store ptr %62, ptr %15, align 8
  br label %63

63:                                               ; preds = %89, %43
  %64 = load ptr, ptr %15, align 8
  %65 = icmp ne ptr %64, null
  br i1 %65, label %66, label %94

66:                                               ; preds = %63
  %67 = load ptr, ptr %15, align 8
  %68 = load ptr, ptr %12, align 8
  %69 = icmp eq ptr %67, %68
  br i1 %69, label %70, label %89

70:                                               ; preds = %66
  %71 = load ptr, ptr %14, align 8
  %72 = icmp ne ptr %71, null
  br i1 %72, label %73, label %79

73:                                               ; preds = %70
  %74 = load ptr, ptr %15, align 8
  %75 = getelementptr inbounds %struct.dtCompressedTile, ptr %74, i32 0, i32 7
  %76 = load ptr, ptr %75, align 8
  %77 = load ptr, ptr %14, align 8
  %78 = getelementptr inbounds %struct.dtCompressedTile, ptr %77, i32 0, i32 7
  store ptr %76, ptr %78, align 8
  br label %88

79:                                               ; preds = %70
  %80 = load ptr, ptr %15, align 8
  %81 = getelementptr inbounds %struct.dtCompressedTile, ptr %80, i32 0, i32 7
  %82 = load ptr, ptr %81, align 8
  %83 = getelementptr inbounds %class.dtTileCache, ptr %16, i32 0, i32 2
  %84 = load ptr, ptr %83, align 8
  %85 = load i32, ptr %13, align 4
  %86 = sext i32 %85 to i64
  %87 = getelementptr inbounds ptr, ptr %84, i64 %86
  store ptr %82, ptr %87, align 8
  br label %88

88:                                               ; preds = %79, %73
  br label %94

89:                                               ; preds = %66
  %90 = load ptr, ptr %15, align 8
  store ptr %90, ptr %14, align 8
  %91 = load ptr, ptr %15, align 8
  %92 = getelementptr inbounds %struct.dtCompressedTile, ptr %91, i32 0, i32 7
  %93 = load ptr, ptr %92, align 8
  store ptr %93, ptr %15, align 8
  br label %63, !llvm.loop !10

94:                                               ; preds = %88, %63
  %95 = load ptr, ptr %12, align 8
  %96 = getelementptr inbounds %struct.dtCompressedTile, ptr %95, i32 0, i32 6
  %97 = load i32, ptr %96, align 4
  %98 = and i32 %97, 1
  %99 = icmp ne i32 %98, 0
  br i1 %99, label %100, label %118

100:                                              ; preds = %94
  %101 = load ptr, ptr %12, align 8
  %102 = getelementptr inbounds %struct.dtCompressedTile, ptr %101, i32 0, i32 4
  %103 = load ptr, ptr %102, align 8
  call void @_Z6dtFreePv(ptr noundef %103)
  %104 = load ptr, ptr %12, align 8
  %105 = getelementptr inbounds %struct.dtCompressedTile, ptr %104, i32 0, i32 4
  store ptr null, ptr %105, align 8
  %106 = load ptr, ptr %12, align 8
  %107 = getelementptr inbounds %struct.dtCompressedTile, ptr %106, i32 0, i32 5
  store i32 0, ptr %107, align 8
  %108 = load ptr, ptr %8, align 8
  %109 = icmp ne ptr %108, null
  br i1 %109, label %110, label %112

110:                                              ; preds = %100
  %111 = load ptr, ptr %8, align 8
  store ptr null, ptr %111, align 8
  br label %112

112:                                              ; preds = %110, %100
  %113 = load ptr, ptr %9, align 8
  %114 = icmp ne ptr %113, null
  br i1 %114, label %115, label %117

115:                                              ; preds = %112
  %116 = load ptr, ptr %9, align 8
  store i32 0, ptr %116, align 4
  br label %117

117:                                              ; preds = %115, %112
  br label %135

118:                                              ; preds = %94
  %119 = load ptr, ptr %8, align 8
  %120 = icmp ne ptr %119, null
  br i1 %120, label %121, label %126

121:                                              ; preds = %118
  %122 = load ptr, ptr %12, align 8
  %123 = getelementptr inbounds %struct.dtCompressedTile, ptr %122, i32 0, i32 4
  %124 = load ptr, ptr %123, align 8
  %125 = load ptr, ptr %8, align 8
  store ptr %124, ptr %125, align 8
  br label %126

126:                                              ; preds = %121, %118
  %127 = load ptr, ptr %9, align 8
  %128 = icmp ne ptr %127, null
  br i1 %128, label %129, label %134

129:                                              ; preds = %126
  %130 = load ptr, ptr %12, align 8
  %131 = getelementptr inbounds %struct.dtCompressedTile, ptr %130, i32 0, i32 5
  %132 = load i32, ptr %131, align 8
  %133 = load ptr, ptr %9, align 8
  store i32 %132, ptr %133, align 4
  br label %134

134:                                              ; preds = %129, %126
  br label %135

135:                                              ; preds = %134, %117
  %136 = load ptr, ptr %12, align 8
  %137 = getelementptr inbounds %struct.dtCompressedTile, ptr %136, i32 0, i32 1
  store ptr null, ptr %137, align 8
  %138 = load ptr, ptr %12, align 8
  %139 = getelementptr inbounds %struct.dtCompressedTile, ptr %138, i32 0, i32 4
  store ptr null, ptr %139, align 8
  %140 = load ptr, ptr %12, align 8
  %141 = getelementptr inbounds %struct.dtCompressedTile, ptr %140, i32 0, i32 5
  store i32 0, ptr %141, align 8
  %142 = load ptr, ptr %12, align 8
  %143 = getelementptr inbounds %struct.dtCompressedTile, ptr %142, i32 0, i32 2
  store ptr null, ptr %143, align 8
  %144 = load ptr, ptr %12, align 8
  %145 = getelementptr inbounds %struct.dtCompressedTile, ptr %144, i32 0, i32 3
  store i32 0, ptr %145, align 8
  %146 = load ptr, ptr %12, align 8
  %147 = getelementptr inbounds %struct.dtCompressedTile, ptr %146, i32 0, i32 6
  store i32 0, ptr %147, align 4
  %148 = load ptr, ptr %12, align 8
  %149 = getelementptr inbounds %struct.dtCompressedTile, ptr %148, i32 0, i32 0
  %150 = load i32, ptr %149, align 8
  %151 = add i32 %150, 1
  %152 = getelementptr inbounds %class.dtTileCache, ptr %16, i32 0, i32 5
  %153 = load i32, ptr %152, align 8
  %154 = shl i32 1, %153
  %155 = sub nsw i32 %154, 1
  %156 = and i32 %151, %155
  %157 = load ptr, ptr %12, align 8
  %158 = getelementptr inbounds %struct.dtCompressedTile, ptr %157, i32 0, i32 0
  store i32 %156, ptr %158, align 8
  %159 = load ptr, ptr %12, align 8
  %160 = getelementptr inbounds %struct.dtCompressedTile, ptr %159, i32 0, i32 0
  %161 = load i32, ptr %160, align 8
  %162 = icmp eq i32 %161, 0
  br i1 %162, label %163, label %168

163:                                              ; preds = %135
  %164 = load ptr, ptr %12, align 8
  %165 = getelementptr inbounds %struct.dtCompressedTile, ptr %164, i32 0, i32 0
  %166 = load i32, ptr %165, align 8
  %167 = add i32 %166, 1
  store i32 %167, ptr %165, align 8
  br label %168

168:                                              ; preds = %163, %135
  %169 = getelementptr inbounds %class.dtTileCache, ptr %16, i32 0, i32 3
  %170 = load ptr, ptr %169, align 8
  %171 = load ptr, ptr %12, align 8
  %172 = getelementptr inbounds %struct.dtCompressedTile, ptr %171, i32 0, i32 7
  store ptr %170, ptr %172, align 8
  %173 = load ptr, ptr %12, align 8
  %174 = getelementptr inbounds %class.dtTileCache, ptr %16, i32 0, i32 3
  store ptr %173, ptr %174, align 8
  store i32 1073741824, ptr %5, align 4
  br label %175

175:                                              ; preds = %168, %42, %30, %19
  %176 = load i32, ptr %5, align 4
  ret i32 %176
}