; Function Attrs: mustprogress uwtable
define noundef range(i32 1073741824, -2147483639) i32 @_ZN11dtTileCache10removeTileEjPPhPi(ptr noundef nonnull align 8 captures(none) dereferenceable(912) %0, i32 noundef %1, ptr noundef writeonly %2, ptr noundef writeonly %3) local_unnamed_addr #0 align 2 {
  %.not = icmp eq i32 %1, 0
  br i1 %.not, label %74, label %5

5:                                                ; preds = %4
  %6 = getelementptr inbounds nuw i8, ptr %0, i64 36
  %7 = load i32, ptr %6, align 4
  %notmask.i = shl nsw i32 -1, %7
  %8 = xor i32 %notmask.i, -1
  %9 = and i32 %1, %8
  %10 = getelementptr inbounds nuw i8, ptr %0, i64 32
  %11 = getelementptr inbounds nuw i8, ptr %0, i64 84
  %12 = load i32, ptr %11, align 4
  %.not55 = icmp slt i32 %9, %12
  br i1 %.not55, label %13, label %74

13:                                               ; preds = %5
  %14 = lshr i32 %1, %7
  %15 = load i32, ptr %10, align 8
  %notmask.i64 = shl nsw i32 -1, %15
  %16 = xor i32 %notmask.i64, -1
  %17 = and i32 %14, %16
  %18 = getelementptr inbounds nuw i8, ptr %0, i64 24
  %19 = load ptr, ptr %18, align 8
  %20 = zext nneg i32 %9 to i64
  %21 = getelementptr inbounds nuw %struct.dtCompressedTile, ptr %19, i64 %20
  %22 = load i32, ptr %21, align 8
  %.not56 = icmp eq i32 %22, %17
  br i1 %.not56, label %23, label %74

23:                                               ; preds = %13
  %24 = getelementptr inbounds nuw i8, ptr %21, i64 8
  %25 = load ptr, ptr %24, align 8
  %26 = getelementptr inbounds nuw i8, ptr %25, i64 8
  %27 = load i32, ptr %26, align 4
  %28 = getelementptr inbounds nuw i8, ptr %25, i64 12
  %29 = load i32, ptr %28, align 4
  %30 = getelementptr inbounds nuw i8, ptr %0, i64 4
  %31 = load i32, ptr %30, align 4
  %32 = mul i32 %27, -1918454973
  %33 = mul i32 %29, -669632447
  %34 = add i32 %33, %32
  %35 = and i32 %34, %31
  %36 = getelementptr inbounds nuw i8, ptr %0, i64 8
  %37 = load ptr, ptr %36, align 8
  %38 = sext i32 %35 to i64
  %39 = getelementptr inbounds ptr, ptr %37, i64 %38
  %.067 = load ptr, ptr %39, align 8
  %.not5768 = icmp eq ptr %.067, null
  br i1 %.not5768, label %.loopexit, label %.lr.ph.preheader

.lr.ph.preheader:                                 ; preds = %23
  %40 = icmp eq ptr %.067, %21
  br i1 %40, label %.lr.ph._crit_edge, label %.lr.ph78

.lr.ph:                                           ; preds = %.lr.ph78
  %41 = icmp eq ptr %.0, %21
  br i1 %41, label %.lr.ph._crit_edge, label %.lr.ph78, !llvm.loop !10

.lr.ph._crit_edge:                                ; preds = %.lr.ph, %.lr.ph.preheader
  %.070.lcssa = phi ptr [ %.067, %.lr.ph.preheader ], [ %.0, %.lr.ph ]
  %.04769.lcssa = phi ptr [ null, %.lr.ph.preheader ], [ %.07077, %.lr.ph ]
  %.not58 = icmp eq ptr %.04769.lcssa, null
  %42 = getelementptr inbounds nuw i8, ptr %.070.lcssa, i64 48
  %43 = load ptr, ptr %42, align 8
  br i1 %.not58, label %46, label %44

44:                                               ; preds = %.lr.ph._crit_edge
  %45 = getelementptr inbounds nuw i8, ptr %.04769.lcssa, i64 48
  store ptr %43, ptr %45, align 8
  br label %.loopexit

46:                                               ; preds = %.lr.ph._crit_edge
  store ptr %43, ptr %39, align 8
  br label %.loopexit

.lr.ph78:                                         ; preds = %.lr.ph.preheader, %.lr.ph
  %.07077 = phi ptr [ %.0, %.lr.ph ], [ %.067, %.lr.ph.preheader ]
  %47 = getelementptr inbounds nuw i8, ptr %.07077, i64 48
  %.0 = load ptr, ptr %47, align 8
  %.not57 = icmp eq ptr %.0, null
  br i1 %.not57, label %.loopexit, label %.lr.ph, !llvm.loop !10

.loopexit:                                        ; preds = %.lr.ph78, %23, %44, %46
  %48 = getelementptr inbounds nuw i8, ptr %21, i64 44
  %49 = load i32, ptr %48, align 4
  %50 = and i32 %49, 1
  %.not59 = icmp eq i32 %50, 0
  br i1 %.not59, label %56, label %51

51:                                               ; preds = %.loopexit
  %52 = getelementptr inbounds nuw i8, ptr %21, i64 32
  %53 = load ptr, ptr %52, align 8
  tail call void @_Z6dtFreePv(ptr noundef %53)
  %.not62 = icmp eq ptr %2, null
  br i1 %.not62, label %55, label %54

54:                                               ; preds = %51
  store ptr null, ptr %2, align 8
  br label %55

55:                                               ; preds = %54, %51
  %.not63 = icmp eq ptr %3, null
  br i1 %.not63, label %64, label %.sink.split

56:                                               ; preds = %.loopexit
  %.not60 = icmp eq ptr %2, null
  br i1 %.not60, label %60, label %57

57:                                               ; preds = %56
  %58 = getelementptr inbounds nuw i8, ptr %21, i64 32
  %59 = load ptr, ptr %58, align 8
  store ptr %59, ptr %2, align 8
  br label %60

60:                                               ; preds = %57, %56
  %.not61 = icmp eq ptr %3, null
  br i1 %.not61, label %64, label %61

61:                                               ; preds = %60
  %62 = getelementptr inbounds nuw i8, ptr %21, i64 40
  %63 = load i32, ptr %62, align 8
  br label %.sink.split

.sink.split:                                      ; preds = %55, %61
  %.sink = phi i32 [ %63, %61 ], [ 0, %55 ]
  store i32 %.sink, ptr %3, align 4
  br label %64

64:                                               ; preds = %.sink.split, %60, %55
  %65 = getelementptr inbounds nuw i8, ptr %21, i64 32
  tail call void @llvm.memset.p0.i64(ptr noundef nonnull align 8 dereferenceable(20) %24, i8 0, i64 20, i1 false)
  tail call void @llvm.memset.p0.i64(ptr noundef nonnull align 8 dereferenceable(16) %65, i8 0, i64 16, i1 false)
  %66 = load i32, ptr %21, align 8
  %67 = add i32 %66, 1
  %68 = load i32, ptr %10, align 8
  %notmask = shl nsw i32 -1, %68
  %69 = xor i32 %notmask, -1
  %70 = and i32 %67, %69
  %spec.select = tail call i32 @llvm.umax.i32(i32 %70, i32 1)
  store i32 %spec.select, ptr %21, align 8
  %71 = getelementptr inbounds nuw i8, ptr %0, i64 16
  %72 = load ptr, ptr %71, align 8
  %73 = getelementptr inbounds nuw i8, ptr %21, i64 48
  store ptr %72, ptr %73, align 8
  store ptr %21, ptr %71, align 8
  br label %74

74:                                               ; preds = %13, %5, %4, %64
  %.048 = phi i32 [ 1073741824, %64 ], [ -2147483640, %4 ], [ -2147483640, %5 ], [ -2147483640, %13 ]
  ret i32 %.048
}